target datalayout = "e-m:e-p270:32:32-p271:32:32-p272:64:64-i64:64-i128:128-f80:128-n8:16:32:64-S128"
target triple = "x86_64-pc-linux-gnu"

%struct.darktable_t = type { %struct.dt_codepath_t, i32, i32, ptr, ptr, ptr, ptr, ptr, ptr, ptr, ptr, ptr, ptr, ptr, ptr, ptr, ptr, ptr, ptr, ptr, ptr, ptr, ptr, ptr, ptr, ptr, ptr, ptr, ptr, ptr, [64 x %struct.dt_pthread_mutex_t], %struct.dt_pthread_mutex_t, %struct.dt_pthread_mutex_t, %struct.dt_pthread_mutex_t, %struct.dt_pthread_mutex_t, %struct.dt_pthread_mutex_t, ptr, ptr, ptr, ptr, ptr, ptr, ptr, ptr, ptr, ptr, ptr, ptr, ptr, %struct.dt_lua_state_t, ptr, double, ptr, i32, [47 x i32], i32, i32, ptr, ptr, %struct.dt_sys_resources_t, %struct.dt_backthumb_t, %struct.dt_gimp_t }
%struct.dt_codepath_t = type { i8, [3 x i8] }
%struct.dt_pthread_mutex_t = type { %union.pthread_mutex_t }
%union.pthread_mutex_t = type { %struct.__pthread_mutex_s }
%struct.__pthread_mutex_s = type { i32, i32, i32, i32, i32, i16, i16, %struct.__pthread_internal_list }
%struct.__pthread_internal_list = type { ptr, ptr }
%struct.dt_lua_state_t = type { i32 }
%struct.dt_sys_resources_t = type { i64, i64, ptr, ptr, i32 }
%struct.dt_backthumb_t = type { double, double, i32, i32, i32, i32 }
%struct.dt_gimp_t = type { i32, ptr, ptr, i32, i32 }
%struct.dt_iop_module_t = type { i32, ptr, ptr, ptr, ptr, ptr, ptr, ptr, ptr, ptr, ptr, ptr, ptr, ptr, ptr, ptr, ptr, ptr, ptr, ptr, ptr, ptr, ptr, ptr, ptr, ptr, ptr, ptr, ptr, ptr, ptr, ptr, ptr, ptr, ptr, ptr, ptr, ptr, ptr, ptr, ptr, ptr, ptr, ptr, ptr, ptr, ptr, ptr, ptr, ptr, ptr, ptr, ptr, ptr, ptr, ptr, ptr, [20 x i8], i32, i32, i32, i32, i32, i32, i32, [8 x i8], [4 x float], [4 x float], [4 x float], [4 x float], [4 x float], [4 x float], ptr, %struct.dt_dev_histogram_stats_t, [4 x i32], i32, i32, ptr, i32, i32, ptr, ptr, i32, ptr, %struct.dt_pthread_mutex_t, ptr, ptr, ptr, ptr, %struct.anon.4, ptr, ptr, ptr, ptr, ptr, ptr, ptr, i32, ptr, ptr, ptr, ptr, ptr, ptr, ptr, i32, ptr, i32, [128 x i8], i32, ptr, ptr, i32, [12 x i8] }
%struct.dt_dev_histogram_stats_t = type { i32, i64, i32, i32 }
%struct.anon.4 = type { %struct.anon.5, %struct.anon.6 }
%struct.anon.5 = type { ptr, ptr }
%struct.anon.6 = type { ptr, i32 }

@darktable = external global %struct.darktable_t, align 8
@.str.43 = private unnamed_addr constant [115 x i8] c"generated/home/dtcxzyw/WorkSpace/Projects/compilers/llvm-opt-benchmark/bench/darktable/darktable/src/gui/presets.c\00", align 1
@stderr = external global ptr, align 8
@.str.45 = private unnamed_addr constant [53 x i8] c"sqlite3 error: %s:%d, function %s(), query \22%s\22: %s\0A\00", align 1
@.str.46 = private unnamed_addr constant [41 x i8] c"[sql] %s:%d, function %s(): prepare \22%s\22\00", align 1
@.str.48 = private unnamed_addr constant [41 x i8] c"sqlite3 error: %s:%d, function %s(): %s\0A\00", align 1
@.str.57 = private unnamed_addr constant [8 x i8] c"(first)\00", align 1
@.str.58 = private unnamed_addr constant [7 x i8] c"(last)\00", align 1
@.str.59 = private unnamed_addr constant [163 x i8] c"SELECT name FROM data.presets WHERE operation=?1 AND op_version=?2 AND       (?3='' OR LOWER(name) %s LOWER(?3)) ORDER BY writeprotect %s, LOWER(name) %s LIMIT ?4\00", align 1
@.str.60 = private unnamed_addr constant [2 x i8] c"<\00", align 1
@.str.61 = private unnamed_addr constant [2 x i8] c">\00", align 1
@.str.62 = private unnamed_addr constant [4 x i8] c"ASC\00", align 1
@.str.63 = private unnamed_addr constant [5 x i8] c"DESC\00", align 1
@__FUNCTION__.dt_gui_presets_apply_adjacent_preset = private unnamed_addr constant [37 x i8] c"dt_gui_presets_apply_adjacent_preset\00", align 1
@.str.64 = private unnamed_addr constant [1 x i8] zeroinitializer, align 1
@.str.65 = private unnamed_addr constant [13 x i8] c"preset %s\0A%s\00", align 1
@.str.66 = private unnamed_addr constant [11 x i8] c"no presets\00", align 1

; Function Attrs: nounwind uwtable
define void @dt_gui_presets_apply_adjacent_preset(ptr noundef %0, i32 noundef %1) #0 {
  %3 = alloca ptr, align 8
  %4 = alloca i32, align 4
  %5 = alloca i32, align 4
  %6 = alloca ptr, align 8
  %7 = alloca ptr, align 8
  %8 = alloca ptr, align 8
  %9 = alloca ptr, align 8
  %10 = alloca i32, align 4
  %11 = alloca i32, align 4
  %12 = alloca i32, align 4
  %13 = alloca i32, align 4
  %14 = alloca i32, align 4
  store ptr %0, ptr %3, align 8, !tbaa !83
  store i32 %1, ptr %4, align 4, !tbaa !13
  call void @llvm.lifetime.start.p0(i64 4, ptr %5) #11
  store i32 0, ptr %5, align 4, !tbaa !13
  call void @llvm.lifetime.start.p0(i64 8, ptr %6) #11
  %15 = load ptr, ptr %3, align 8, !tbaa !83
  %16 = call ptr @dt_get_active_preset_name(ptr noundef %15, ptr noundef %5)
  store ptr %16, ptr %6, align 8, !tbaa !11
  call void @llvm.lifetime.start.p0(i64 8, ptr %7) #11
  %17 = load i32, ptr %4, align 4, !tbaa !13
  %18 = icmp slt i32 %17, 0
  br i1 %18, label %19, label %21

19:                                               ; preds = %2
  %20 = call ptr @dcgettext(ptr noundef null, ptr noundef @.str.57, i32 noundef 5) #11
  br label %23

21:                                               ; preds = %2
  %22 = call ptr @dcgettext(ptr noundef null, ptr noundef @.str.58, i32 noundef 5) #11
  br label %23

23:                                               ; preds = %21, %19
  %24 = phi ptr [ %20, %19 ], [ %22, %21 ]
  store ptr %24, ptr %7, align 8, !tbaa !11
  call void @llvm.lifetime.start.p0(i64 8, ptr %8) #11
  call void @llvm.lifetime.start.p0(i64 8, ptr %9) #11
  %25 = load i32, ptr %4, align 4, !tbaa !13
  %26 = icmp slt i32 %25, 0
  %27 = select i1 %26, ptr @.str.60, ptr @.str.61
  %28 = load i32, ptr %4, align 4, !tbaa !13
  %29 = icmp slt i32 %28, 0
  %30 = select i1 %29, ptr @.str.62, ptr @.str.63
  %31 = load i32, ptr %4, align 4, !tbaa !13
  %32 = icmp slt i32 %31, 0
  %33 = select i1 %32, ptr @.str.63, ptr @.str.62
  %34 = call noalias ptr (ptr, ...) @g_strdup_printf(ptr noundef @.str.59, ptr noundef %27, ptr noundef %30, ptr noundef %33)
  store ptr %34, ptr %9, align 8, !tbaa !11
  br label %35

35:                                               ; preds = %23
  br label %36

36:                                               ; preds = %35
  %37 = load i32, ptr getelementptr inbounds nuw (%struct.darktable_t, ptr @darktable, i32 0, i32 2), align 8, !tbaa !23
  %38 = and i32 256, %37
  %39 = icmp ne i32 %38, 0
  br i1 %39, label %40, label %47

40:                                               ; preds = %36
  %41 = load i32, ptr getelementptr inbounds nuw (%struct.darktable_t, ptr @darktable, i32 0, i32 2), align 8, !tbaa !23
  %42 = xor i32 %41, -1
  %43 = and i32 0, %42
  %44 = icmp ne i32 %43, 0
  br i1 %44, label %47, label %45

45:                                               ; preds = %40
  %46 = load ptr, ptr %9, align 8, !tbaa !11
  call void (ptr, ...) @dt_print_ext(ptr noundef @.str.46, ptr noundef @.str.43, i32 noundef 1146, ptr noundef @__FUNCTION__.dt_gui_presets_apply_adjacent_preset, ptr noundef %46)
  br label %47

47:                                               ; preds = %45, %40, %36
  br label %48

48:                                               ; preds = %47
  br label %49

49:                                               ; preds = %48
  call void @llvm.lifetime.start.p0(i64 4, ptr %10) #11
  %50 = load ptr, ptr getelementptr inbounds nuw (%struct.darktable_t, ptr @darktable, i32 0, i32 18), align 8, !tbaa !59
  %51 = call ptr @dt_database_get(ptr noundef %50)
  %52 = load ptr, ptr %9, align 8, !tbaa !11
  %53 = call i32 @sqlite3_prepare_v2(ptr noundef %51, ptr noundef %52, i32 noundef -1, ptr noundef %8, ptr noundef null)
  store i32 %53, ptr %10, align 4, !tbaa !13
  %54 = load i32, ptr %10, align 4, !tbaa !13
  %55 = icmp ne i32 %54, 0
  br i1 %55, label %56, label %63

56:                                               ; preds = %49
  %57 = load ptr, ptr @stderr, align 8, !tbaa !60
  %58 = load ptr, ptr %9, align 8, !tbaa !11
  %59 = load ptr, ptr getelementptr inbounds nuw (%struct.darktable_t, ptr @darktable, i32 0, i32 18), align 8, !tbaa !59
  %60 = call ptr @dt_database_get(ptr noundef %59)
  %61 = call ptr @sqlite3_errmsg(ptr noundef %60)
  %62 = call i32 (ptr, ptr, ...) @fprintf(ptr noundef %57, ptr noundef @.str.45, ptr noundef @.str.43, i32 noundef 1146, ptr noundef @__FUNCTION__.dt_gui_presets_apply_adjacent_preset, ptr noundef %58, ptr noundef %61) #11
  br label %63

63:                                               ; preds = %56, %49
  call void @llvm.lifetime.end.p0(i64 4, ptr %10) #11
  br label %64

64:                                               ; preds = %63
  br label %65

65:                                               ; preds = %64
  call void @llvm.lifetime.start.p0(i64 4, ptr %11) #11
  %66 = load ptr, ptr %8, align 8, !tbaa !62
  %67 = load ptr, ptr %3, align 8, !tbaa !83
  %68 = getelementptr inbounds nuw %struct.dt_iop_module_t, ptr %67, i32 0, i32 57
  %69 = getelementptr inbounds [20 x i8], ptr %68, i64 0, i64 0
  %70 = call i32 @sqlite3_bind_text(ptr noundef %66, i32 noundef 1, ptr noundef %69, i32 noundef -1, ptr noundef null)
  store i32 %70, ptr %11, align 4, !tbaa !13
  %71 = load i32, ptr %11, align 4, !tbaa !13
  %72 = icmp ne i32 %71, 0
  br i1 %72, label %73, label %79

73:                                               ; preds = %65
  %74 = load ptr, ptr @stderr, align 8, !tbaa !60
  %75 = load ptr, ptr getelementptr inbounds nuw (%struct.darktable_t, ptr @darktable, i32 0, i32 18), align 8, !tbaa !59
  %76 = call ptr @dt_database_get(ptr noundef %75)
  %77 = call ptr @sqlite3_errmsg(ptr noundef %76)
  %78 = call i32 (ptr, ptr, ...) @fprintf(ptr noundef %74, ptr noundef @.str.48, ptr noundef @.str.43, i32 noundef 1147, ptr noundef @__FUNCTION__.dt_gui_presets_apply_adjacent_preset, ptr noundef %77) #11
  br label %79

79:                                               ; preds = %73, %65
  call void @llvm.lifetime.end.p0(i64 4, ptr %11) #11
  call void @llvm.lifetime.start.p0(i64 4, ptr %12) #11
  %80 = load ptr, ptr %8, align 8, !tbaa !62
  %81 = load ptr, ptr %3, align 8, !tbaa !83
  %82 = getelementptr inbounds nuw %struct.dt_iop_module_t, ptr %81, i32 0, i32 1
  %83 = load ptr, ptr %82, align 8, !tbaa !97
  %84 = call i32 (...) %83()
  %85 = call i32 @sqlite3_bind_int(ptr noundef %80, i32 noundef 2, i32 noundef %84)
  store i32 %85, ptr %12, align 4, !tbaa !13
  %86 = load i32, ptr %12, align 4, !tbaa !13
  %87 = icmp ne i32 %86, 0
  br i1 %87, label %88, label %94

88:                                               ; preds = %79
  %89 = load ptr, ptr @stderr, align 8, !tbaa !60
  %90 = load ptr, ptr getelementptr inbounds nuw (%struct.darktable_t, ptr @darktable, i32 0, i32 18), align 8, !tbaa !59
  %91 = call ptr @dt_database_get(ptr noundef %90)
  %92 = call ptr @sqlite3_errmsg(ptr noundef %91)
  %93 = call i32 (ptr, ptr, ...) @fprintf(ptr noundef %89, ptr noundef @.str.48, ptr noundef @.str.43, i32 noundef 1148, ptr noundef @__FUNCTION__.dt_gui_presets_apply_adjacent_preset, ptr noundef %92) #11
  br label %94

94:                                               ; preds = %88, %79
  call void @llvm.lifetime.end.p0(i64 4, ptr %12) #11
  call void @llvm.lifetime.start.p0(i64 4, ptr %13) #11
  %95 = load ptr, ptr %8, align 8, !tbaa !62
  %96 = load ptr, ptr %6, align 8, !tbaa !11
  %97 = icmp ne ptr %96, null
  br i1 %97, label %98, label %100

98:                                               ; preds = %94
  %99 = load ptr, ptr %6, align 8, !tbaa !11
  br label %101

100:                                              ; preds = %94
  br label %101

101:                                              ; preds = %100, %98
  %102 = phi ptr [ %99, %98 ], [ @.str.64, %100 ]
  %103 = call i32 @sqlite3_bind_text(ptr noundef %95, i32 noundef 3, ptr noundef %102, i32 noundef -1, ptr noundef null)
  store i32 %103, ptr %13, align 4, !tbaa !13
  %104 = load i32, ptr %13, align 4, !tbaa !13
  %105 = icmp ne i32 %104, 0
  br i1 %105, label %106, label %112

106:                                              ; preds = %101
  %107 = load ptr, ptr @stderr, align 8, !tbaa !60
  %108 = load ptr, ptr getelementptr inbounds nuw (%struct.darktable_t, ptr @darktable, i32 0, i32 18), align 8, !tbaa !59
  %109 = call ptr @dt_database_get(ptr noundef %108)
  %110 = call ptr @sqlite3_errmsg(ptr noundef %109)
  %111 = call i32 (ptr, ptr, ...) @fprintf(ptr noundef %107, ptr noundef @.str.48, ptr noundef @.str.43, i32 noundef 1149, ptr noundef @__FUNCTION__.dt_gui_presets_apply_adjacent_preset, ptr noundef %110) #11
  br label %112

112:                                              ; preds = %106, %101
  call void @llvm.lifetime.end.p0(i64 4, ptr %13) #11
  call void @llvm.lifetime.start.p0(i64 4, ptr %14) #11
  %113 = load ptr, ptr %8, align 8, !tbaa !62
  %114 = load i32, ptr %4, align 4, !tbaa !13
  %115 = call i32 @llvm.abs.i32(i32 %114, i1 true)
  %116 = call i32 @sqlite3_bind_int(ptr noundef %113, i32 noundef 4, i32 noundef %115)
  store i32 %116, ptr %14, align 4, !tbaa !13
  %117 = load i32, ptr %14, align 4, !tbaa !13
  %118 = icmp ne i32 %117, 0
  br i1 %118, label %119, label %125

119:                                              ; preds = %112
  %120 = load ptr, ptr @stderr, align 8, !tbaa !60
  %121 = load ptr, ptr getelementptr inbounds nuw (%struct.darktable_t, ptr @darktable, i32 0, i32 18), align 8, !tbaa !59
  %122 = call ptr @dt_database_get(ptr noundef %121)
  %123 = call ptr @sqlite3_errmsg(ptr noundef %122)
  %124 = call i32 (ptr, ptr, ...) @fprintf(ptr noundef %120, ptr noundef @.str.48, ptr noundef @.str.43, i32 noundef 1150, ptr noundef @__FUNCTION__.dt_gui_presets_apply_adjacent_preset, ptr noundef %123) #11
  br label %125

125:                                              ; preds = %119, %112
  call void @llvm.lifetime.end.p0(i64 4, ptr %14) #11
  %126 = load ptr, ptr %9, align 8, !tbaa !11
  call void @g_free(ptr noundef %126)
  br label %127

127:                                              ; preds = %131, %125
  %128 = load ptr, ptr %8, align 8, !tbaa !62
  %129 = call i32 @sqlite3_step(ptr noundef %128)
  %130 = icmp eq i32 %129, 100
  br i1 %130, label %131, label %136

131:                                              ; preds = %127
  %132 = load ptr, ptr %6, align 8, !tbaa !11
  call void @g_free(ptr noundef %132)
  %133 = load ptr, ptr %8, align 8, !tbaa !62
  %134 = call ptr @sqlite3_column_text(ptr noundef %133, i32 noundef 0)
  %135 = call noalias ptr @g_strdup(ptr noundef %134)
  store ptr %135, ptr %6, align 8, !tbaa !11
  store ptr @.str.64, ptr %7, align 8, !tbaa !11
  br label %127

136:                                              ; preds = %127
  %137 = load ptr, ptr %8, align 8, !tbaa !62
  %138 = call i32 @sqlite3_finalize(ptr noundef %137)
  %139 = load ptr, ptr %7, align 8, !tbaa !11
  %140 = load i8, ptr %139, align 1, !tbaa !20
  %141 = icmp ne i8 %140, 0
  br i1 %141, label %145, label %142

142:                                              ; preds = %136
  %143 = load ptr, ptr %6, align 8, !tbaa !11
  %144 = load ptr, ptr %3, align 8, !tbaa !83
  call void @dt_gui_presets_apply_preset(ptr noundef %143, ptr noundef %144)
  br label %145

145:                                              ; preds = %142, %136
  %146 = load ptr, ptr %3, align 8, !tbaa !83
  %147 = icmp ne ptr %146, null
  br i1 %147, label %148, label %151

148:                                              ; preds = %145
  %149 = load ptr, ptr %3, align 8, !tbaa !83
  %150 = getelementptr inbounds nuw %struct.dt_iop_module_t, ptr %149, i32 0, i32 0
  br label %152

151:                                              ; preds = %145
  br label %152

152:                                              ; preds = %151, %148
  %153 = phi ptr [ %150, %148 ], [ null, %151 ]
  %154 = call ptr @dcgettext(ptr noundef null, ptr noundef @.str.65, i32 noundef 5) #11
  %155 = load ptr, ptr %7, align 8, !tbaa !11
  %156 = load ptr, ptr %6, align 8, !tbaa !11
  %157 = icmp ne ptr %156, null
  br i1 %157, label %158, label %160

158:                                              ; preds = %152
  %159 = load ptr, ptr %6, align 8, !tbaa !11
  br label %162

160:                                              ; preds = %152
  %161 = call ptr @dcgettext(ptr noundef null, ptr noundef @.str.66, i32 noundef 5) #11
  br label %162

162:                                              ; preds = %160, %158
  %163 = phi ptr [ %159, %158 ], [ %161, %160 ]
  call void (ptr, ptr, ptr, ...) @dt_action_widget_toast(ptr noundef %153, ptr noundef null, ptr noundef %154, ptr noundef %155, ptr noundef %163)
  %164 = load ptr, ptr %6, align 8, !tbaa !11
  call void @g_free(ptr noundef %164)
  call void @llvm.lifetime.end.p0(i64 8, ptr %9) #11
  call void @llvm.lifetime.end.p0(i64 8, ptr %8) #11
  call void @llvm.lifetime.end.p0(i64 8, ptr %7) #11
  call void @llvm.lifetime.end.p0(i64 8, ptr %6) #11
  call void @llvm.lifetime.end.p0(i64 4, ptr %5) #11
  ret void
}