; Function Attrs: nounwind uwtable
define void @dt_gui_presets_apply_adjacent_preset(ptr noundef %0, i32 noundef %1) local_unnamed_addr #0 {
  %3 = alloca i32, align 4
  %4 = alloca ptr, align 8
  call void @llvm.lifetime.start.p0(i64 4, ptr nonnull %3) #16
  store i32 0, ptr %3, align 4, !tbaa !117
  %5 = call ptr @dt_get_active_preset_name(ptr noundef %0, ptr noundef nonnull %3) #16
  %6 = icmp slt i32 %1, 0
  %.str.57..str.58 = select i1 %6, ptr @.str.57, ptr @.str.58
  %.str.63..str.62 = select i1 %6, ptr @.str.63, ptr @.str.62
  %.str.62..str.63 = select i1 %6, ptr @.str.62, ptr @.str.63
  %.str.60..str.61 = select i1 %6, ptr @.str.60, ptr @.str.61
  %7 = call ptr @dcgettext(ptr noundef null, ptr noundef nonnull %.str.57..str.58, i32 noundef 5) #16
  call void @llvm.lifetime.start.p0(i64 8, ptr nonnull %4) #16
  %8 = call noalias ptr (ptr, ...) @g_strdup_printf(ptr noundef nonnull @.str.59, ptr noundef nonnull %.str.60..str.61, ptr noundef nonnull %.str.62..str.63, ptr noundef nonnull %.str.63..str.62) #16
  %9 = load i32, ptr getelementptr inbounds nuw (i8, ptr @darktable, i64 8), align 8, !tbaa !14
  %10 = and i32 %9, 256
  %.not = icmp eq i32 %10, 0
  br i1 %.not, label %12, label %11

11:                                               ; preds = %2
  call void (ptr, ...) @dt_print_ext(ptr noundef nonnull @.str.46, ptr noundef nonnull @.str.43, i32 noundef 1146, ptr noundef nonnull @__FUNCTION__.dt_gui_presets_apply_adjacent_preset, ptr noundef %8) #16
  br label %12

12:                                               ; preds = %11, %2
  %13 = load ptr, ptr getelementptr inbounds nuw (i8, ptr @darktable, i64 136), align 8, !tbaa !53
  %14 = call ptr @dt_database_get(ptr noundef %13) #16
  %15 = call i32 @sqlite3_prepare_v2(ptr noundef %14, ptr noundef %8, i32 noundef -1, ptr noundef nonnull %4, ptr noundef null) #16
  %.not29 = icmp eq i32 %15, 0
  br i1 %.not29, label %22, label %16

16:                                               ; preds = %12
  %17 = load ptr, ptr @stderr, align 8, !tbaa !54
  %18 = load ptr, ptr getelementptr inbounds nuw (i8, ptr @darktable, i64 136), align 8, !tbaa !53
  %19 = call ptr @dt_database_get(ptr noundef %18) #16
  %20 = call ptr @sqlite3_errmsg(ptr noundef %19) #16
  %21 = call i32 (ptr, ptr, ...) @fprintf(ptr noundef %17, ptr noundef nonnull @.str.45, ptr noundef nonnull @.str.43, i32 noundef 1146, ptr noundef nonnull @__FUNCTION__.dt_gui_presets_apply_adjacent_preset, ptr noundef %8, ptr noundef %20) #17
  br label %22

22:                                               ; preds = %16, %12
  %23 = load ptr, ptr %4, align 8, !tbaa !56
  %24 = getelementptr inbounds nuw i8, ptr %0, i64 456
  %25 = call i32 @sqlite3_bind_text(ptr noundef %23, i32 noundef 1, ptr noundef nonnull %24, i32 noundef -1, ptr noundef null) #16
  %.not30 = icmp eq i32 %25, 0
  br i1 %.not30, label %32, label %26

26:                                               ; preds = %22
  %27 = load ptr, ptr @stderr, align 8, !tbaa !54
  %28 = load ptr, ptr getelementptr inbounds nuw (i8, ptr @darktable, i64 136), align 8, !tbaa !53
  %29 = call ptr @dt_database_get(ptr noundef %28) #16
  %30 = call ptr @sqlite3_errmsg(ptr noundef %29) #16
  %31 = call i32 (ptr, ptr, ...) @fprintf(ptr noundef %27, ptr noundef nonnull @.str.48, ptr noundef nonnull @.str.43, i32 noundef 1147, ptr noundef nonnull @__FUNCTION__.dt_gui_presets_apply_adjacent_preset, ptr noundef %30) #17
  br label %32

32:                                               ; preds = %26, %22
  %33 = load ptr, ptr %4, align 8, !tbaa !56
  %34 = getelementptr inbounds nuw i8, ptr %0, i64 8
  %35 = load ptr, ptr %34, align 8, !tbaa !72
  %36 = call i32 (...) %35() #16
  %37 = call i32 @sqlite3_bind_int(ptr noundef %33, i32 noundef 2, i32 noundef %36) #16
  %.not31 = icmp eq i32 %37, 0
  br i1 %.not31, label %44, label %38

38:                                               ; preds = %32
  %39 = load ptr, ptr @stderr, align 8, !tbaa !54
  %40 = load ptr, ptr getelementptr inbounds nuw (i8, ptr @darktable, i64 136), align 8, !tbaa !53
  %41 = call ptr @dt_database_get(ptr noundef %40) #16
  %42 = call ptr @sqlite3_errmsg(ptr noundef %41) #16
  %43 = call i32 (ptr, ptr, ...) @fprintf(ptr noundef %39, ptr noundef nonnull @.str.48, ptr noundef nonnull @.str.43, i32 noundef 1148, ptr noundef nonnull @__FUNCTION__.dt_gui_presets_apply_adjacent_preset, ptr noundef %42) #17
  br label %44

44:                                               ; preds = %38, %32
  %45 = load ptr, ptr %4, align 8, !tbaa !56
  %.not32 = icmp eq ptr %5, null
  %46 = select i1 %.not32, ptr @.str.64, ptr %5
  %47 = call i32 @sqlite3_bind_text(ptr noundef %45, i32 noundef 3, ptr noundef nonnull %46, i32 noundef -1, ptr noundef null) #16
  %.not33 = icmp eq i32 %47, 0
  br i1 %.not33, label %54, label %48

48:                                               ; preds = %44
  %49 = load ptr, ptr @stderr, align 8, !tbaa !54
  %50 = load ptr, ptr getelementptr inbounds nuw (i8, ptr @darktable, i64 136), align 8, !tbaa !53
  %51 = call ptr @dt_database_get(ptr noundef %50) #16
  %52 = call ptr @sqlite3_errmsg(ptr noundef %51) #16
  %53 = call i32 (ptr, ptr, ...) @fprintf(ptr noundef %49, ptr noundef nonnull @.str.48, ptr noundef nonnull @.str.43, i32 noundef 1149, ptr noundef nonnull @__FUNCTION__.dt_gui_presets_apply_adjacent_preset, ptr noundef %52) #17
  br label %54

54:                                               ; preds = %48, %44
  %55 = load ptr, ptr %4, align 8, !tbaa !56
  %56 = call i32 @llvm.abs.i32(i32 %1, i1 true)
  %57 = call i32 @sqlite3_bind_int(ptr noundef %55, i32 noundef 4, i32 noundef %56) #16
  %.not34 = icmp eq i32 %57, 0
  br i1 %.not34, label %64, label %58

58:                                               ; preds = %54
  %59 = load ptr, ptr @stderr, align 8, !tbaa !54
  %60 = load ptr, ptr getelementptr inbounds nuw (i8, ptr @darktable, i64 136), align 8, !tbaa !53
  %61 = call ptr @dt_database_get(ptr noundef %60) #16
  %62 = call ptr @sqlite3_errmsg(ptr noundef %61) #16
  %63 = call i32 (ptr, ptr, ...) @fprintf(ptr noundef %59, ptr noundef nonnull @.str.48, ptr noundef nonnull @.str.43, i32 noundef 1150, ptr noundef nonnull @__FUNCTION__.dt_gui_presets_apply_adjacent_preset, ptr noundef %62) #17
  br label %64

64:                                               ; preds = %58, %54
  call void @g_free(ptr noundef %8) #16
  %65 = load ptr, ptr %4, align 8, !tbaa !56
  %66 = call i32 @sqlite3_step(ptr noundef %65) #16
  %67 = icmp eq i32 %66, 100
  br i1 %67, label %.lr.ph, label %._crit_edge

.lr.ph:                                           ; preds = %64, %.lr.ph
  %.037 = phi ptr [ %70, %.lr.ph ], [ %5, %64 ]
  call void @g_free(ptr noundef %.037) #16
  %68 = load ptr, ptr %4, align 8, !tbaa !56
  %69 = call ptr @sqlite3_column_text(ptr noundef %68, i32 noundef 0) #16
  %70 = call noalias ptr @g_strdup(ptr noundef %69) #16
  %71 = load ptr, ptr %4, align 8, !tbaa !56
  %72 = call i32 @sqlite3_step(ptr noundef %71) #16
  %73 = icmp eq i32 %72, 100
  br i1 %73, label %.lr.ph, label %._crit_edge

._crit_edge:                                      ; preds = %.lr.ph, %64
  %.028.lcssa = phi ptr [ %7, %64 ], [ @.str.64, %.lr.ph ]
  %.0.lcssa = phi ptr [ %5, %64 ], [ %70, %.lr.ph ]
  %74 = load ptr, ptr %4, align 8, !tbaa !56
  %75 = call i32 @sqlite3_finalize(ptr noundef %74) #16
  %76 = load i8, ptr %.028.lcssa, align 1, !tbaa !11
  %.not35 = icmp eq i8 %76, 0
  br i1 %.not35, label %77, label %78

77:                                               ; preds = %._crit_edge
  call void @dt_gui_presets_apply_preset(ptr noundef %.0.lcssa, ptr noundef %0)
  br label %78

78:                                               ; preds = %77, %._crit_edge
  %79 = call ptr @dcgettext(ptr noundef null, ptr noundef nonnull @.str.65, i32 noundef 5) #16
  %.not36 = icmp eq ptr %.0.lcssa, null
  br i1 %.not36, label %80, label %82

80:                                               ; preds = %78
  %81 = call ptr @dcgettext(ptr noundef null, ptr noundef nonnull @.str.66, i32 noundef 5) #16
  br label %82

82:                                               ; preds = %78, %80
  %83 = phi ptr [ %81, %80 ], [ %.0.lcssa, %78 ]
  call void (ptr, ptr, ptr, ...) @dt_action_widget_toast(ptr noundef %0, ptr noundef null, ptr noundef %79, ptr noundef nonnull %.028.lcssa, ptr noundef %83) #16
  call void @g_free(ptr noundef %.0.lcssa) #16
  call void @llvm.lifetime.end.p0(i64 8, ptr nonnull %4) #16
  call void @llvm.lifetime.end.p0(i64 4, ptr nonnull %3) #16
  ret void
}